target datalayout = "e-m:e-p270:32:32-p271:32:32-p272:64:64-i64:64-i128:128-f80:128-n8:16:32:64-S128"
target triple = "x86_64-pc-linux-gnu"

%struct.Atrac3pIPQFChannelCtx = type { [24 x [8 x float]], [24 x [8 x float]], i32, [12 x i8] }

@mod23_lut = internal constant [26 x i32] [i32 23, i32 0, i32 1, i32 2, i32 3, i32 4, i32 5, i32 6, i32 7, i32 8, i32 9, i32 10, i32 11, i32 12, i32 13, i32 14, i32 15, i32 16, i32 17, i32 18, i32 19, i32 20, i32 21, i32 22, i32 23, i32 0], align 16

; Function Attrs: nounwind uwtable
define void @ff_atrac3p_ipqf(ptr noundef %0, ptr noundef %1, ptr noundef %2, ptr noundef %3, ptr noundef %4) #4 {
  %6 = alloca ptr, align 8
  %7 = alloca ptr, align 8
  %8 = alloca ptr, align 8
  %9 = alloca ptr, align 8
  %10 = alloca ptr, align 8
  %11 = alloca i32, align 4
  %12 = alloca i32, align 4
  %13 = alloca i32, align 4
  %14 = alloca i32, align 4
  %15 = alloca i32, align 4
  %16 = alloca i32, align 4
  %17 = alloca [16 x float], align 16
  %18 = alloca ptr, align 8
  %19 = alloca [16 x float], align 16
  %20 = alloca ptr, align 8
  store ptr %0, ptr %6, align 8, !tbaa !82
  store ptr %1, ptr %7, align 8, !tbaa !84
  store ptr %2, ptr %8, align 8, !tbaa !87
  store ptr %3, ptr %9, align 8, !tbaa !19
  store ptr %4, ptr %10, align 8, !tbaa !19
  call void @llvm.lifetime.start.p0(i64 4, ptr %11) #6
  call void @llvm.lifetime.start.p0(i64 4, ptr %12) #6
  call void @llvm.lifetime.start.p0(i64 4, ptr %13) #6
  call void @llvm.lifetime.start.p0(i64 4, ptr %14) #6
  call void @llvm.lifetime.start.p0(i64 4, ptr %15) #6
  call void @llvm.lifetime.start.p0(i64 4, ptr %16) #6
  call void @llvm.lifetime.start.p0(i64 64, ptr %17) #6
  call void @llvm.lifetime.start.p0(i64 8, ptr %18) #6
  %21 = getelementptr inbounds [16 x float], ptr %17, i64 0, i64 0
  store ptr %21, ptr %18, align 8, !tbaa !19
  call void @llvm.lifetime.start.p0(i64 64, ptr %19) #6
  call void @llvm.lifetime.start.p0(i64 8, ptr %20) #6
  %22 = getelementptr inbounds [16 x float], ptr %19, i64 0, i64 0
  store ptr %22, ptr %20, align 8, !tbaa !19
  %23 = load ptr, ptr %10, align 8, !tbaa !19
  call void @llvm.memset.p0.i64(ptr align 4 %23, i8 0, i64 8192, i1 false)
  store i32 0, ptr %12, align 4, !tbaa !4
  br label %24

24:                                               ; preds = %226, %5
  %25 = load i32, ptr %12, align 4, !tbaa !4
  %26 = icmp slt i32 %25, 128
  br i1 %26, label %27, label %229

27:                                               ; preds = %24
  store i32 0, ptr %13, align 4, !tbaa !4
  br label %28

28:                                               ; preds = %44, %27
  %29 = load i32, ptr %13, align 4, !tbaa !4
  %30 = icmp slt i32 %29, 16
  br i1 %30, label %31, label %47

31:                                               ; preds = %28
  %32 = load ptr, ptr %9, align 8, !tbaa !19
  %33 = load i32, ptr %13, align 4, !tbaa !4
  %34 = mul nsw i32 %33, 128
  %35 = load i32, ptr %12, align 4, !tbaa !4
  %36 = add nsw i32 %34, %35
  %37 = sext i32 %36 to i64
  %38 = getelementptr inbounds float, ptr %32, i64 %37
  %39 = load float, ptr %38, align 4, !tbaa !8
  %40 = load ptr, ptr %18, align 8, !tbaa !19
  %41 = load i32, ptr %13, align 4, !tbaa !4
  %42 = sext i32 %41 to i64
  %43 = getelementptr inbounds float, ptr %40, i64 %42
  store float %39, ptr %43, align 4, !tbaa !8
  br label %44

44:                                               ; preds = %31
  %45 = load i32, ptr %13, align 4, !tbaa !4
  %46 = add nsw i32 %45, 1
  store i32 %46, ptr %13, align 4, !tbaa !4
  br label %28, !llvm.loop !89

47:                                               ; preds = %28
  %48 = load ptr, ptr %7, align 8, !tbaa !84
  %49 = load ptr, ptr %6, align 8, !tbaa !82
  %50 = load ptr, ptr %20, align 8, !tbaa !19
  %51 = load ptr, ptr %18, align 8, !tbaa !19
  call void %48(ptr noundef %49, ptr noundef %50, ptr noundef %51, i64 noundef 4)
  store i32 0, ptr %11, align 4, !tbaa !4
  br label %52

52:                                               ; preds = %88, %47
  %53 = load i32, ptr %11, align 4, !tbaa !4
  %54 = icmp slt i32 %53, 8
  br i1 %54, label %55, label %91

55:                                               ; preds = %52
  %56 = load ptr, ptr %20, align 8, !tbaa !19
  %57 = load i32, ptr %11, align 4, !tbaa !4
  %58 = add nsw i32 %57, 8
  %59 = sext i32 %58 to i64
  %60 = getelementptr inbounds float, ptr %56, i64 %59
  %61 = load float, ptr %60, align 4, !tbaa !8
  %62 = load ptr, ptr %8, align 8, !tbaa !87
  %63 = getelementptr inbounds nuw %struct.Atrac3pIPQFChannelCtx, ptr %62, i32 0, i32 0
  %64 = load ptr, ptr %8, align 8, !tbaa !87
  %65 = getelementptr inbounds nuw %struct.Atrac3pIPQFChannelCtx, ptr %64, i32 0, i32 2
  %66 = load i32, ptr %65, align 16, !tbaa !90
  %67 = sext i32 %66 to i64
  %68 = getelementptr inbounds [24 x [8 x float]], ptr %63, i64 0, i64 %67
  %69 = load i32, ptr %11, align 4, !tbaa !4
  %70 = sext i32 %69 to i64
  %71 = getelementptr inbounds [8 x float], ptr %68, i64 0, i64 %70
  store float %61, ptr %71, align 4, !tbaa !8
  %72 = load ptr, ptr %20, align 8, !tbaa !19
  %73 = load i32, ptr %11, align 4, !tbaa !4
  %74 = sub nsw i32 7, %73
  %75 = sext i32 %74 to i64
  %76 = getelementptr inbounds float, ptr %72, i64 %75
  %77 = load float, ptr %76, align 4, !tbaa !8
  %78 = load ptr, ptr %8, align 8, !tbaa !87
  %79 = getelementptr inbounds nuw %struct.Atrac3pIPQFChannelCtx, ptr %78, i32 0, i32 1
  %80 = load ptr, ptr %8, align 8, !tbaa !87
  %81 = getelementptr inbounds nuw %struct.Atrac3pIPQFChannelCtx, ptr %80, i32 0, i32 2
  %82 = load i32, ptr %81, align 16, !tbaa !90
  %83 = sext i32 %82 to i64
  %84 = getelementptr inbounds [24 x [8 x float]], ptr %79, i64 0, i64 %83
  %85 = load i32, ptr %11, align 4, !tbaa !4
  %86 = sext i32 %85 to i64
  %87 = getelementptr inbounds [8 x float], ptr %84, i64 0, i64 %86
  store float %77, ptr %87, align 4, !tbaa !8
  br label %88

88:                                               ; preds = %55
  %89 = load i32, ptr %11, align 4, !tbaa !4
  %90 = add nsw i32 %89, 1
  store i32 %90, ptr %11, align 4, !tbaa !4
  br label %52, !llvm.loop !92

91:                                               ; preds = %52
  %92 = load ptr, ptr %8, align 8, !tbaa !87
  %93 = getelementptr inbounds nuw %struct.Atrac3pIPQFChannelCtx, ptr %92, i32 0, i32 2
  %94 = load i32, ptr %93, align 16, !tbaa !90
  store i32 %94, ptr %15, align 4, !tbaa !4
  %95 = load i32, ptr %15, align 4, !tbaa !4
  %96 = add nsw i32 %95, 2
  %97 = sext i32 %96 to i64
  %98 = getelementptr inbounds [26 x i32], ptr @mod23_lut, i64 0, i64 %97
  %99 = load i32, ptr %98, align 4, !tbaa !4
  store i32 %99, ptr %16, align 4, !tbaa !4
  store i32 0, ptr %14, align 4, !tbaa !4
  br label %100

100:                                              ; preds = %214, %91
  %101 = load i32, ptr %14, align 4, !tbaa !4
  %102 = icmp slt i32 %101, 12
  br i1 %102, label %103, label %217

103:                                              ; preds = %100
  store i32 0, ptr %11, align 4, !tbaa !4
  br label %104

104:                                              ; preds = %200, %103
  %105 = load i32, ptr %11, align 4, !tbaa !4
  %106 = icmp slt i32 %105, 8
  br i1 %106, label %107, label %203

107:                                              ; preds = %104
  %108 = load ptr, ptr %8, align 8, !tbaa !87
  %109 = getelementptr inbounds nuw %struct.Atrac3pIPQFChannelCtx, ptr %108, i32 0, i32 0
  %110 = load i32, ptr %15, align 4, !tbaa !4
  %111 = sext i32 %110 to i64
  %112 = getelementptr inbounds [24 x [8 x float]], ptr %109, i64 0, i64 %111
  %113 = load i32, ptr %11, align 4, !tbaa !4
  %114 = sext i32 %113 to i64
  %115 = getelementptr inbounds [8 x float], ptr %112, i64 0, i64 %114
  %116 = load float, ptr %115, align 4, !tbaa !8
  %117 = load i32, ptr %14, align 4, !tbaa !4
  %118 = sext i32 %117 to i64
  %119 = getelementptr inbounds [12 x [16 x float]], ptr @ipqf_coeffs1, i64 0, i64 %118
  %120 = load i32, ptr %11, align 4, !tbaa !4
  %121 = sext i32 %120 to i64
  %122 = getelementptr inbounds [16 x float], ptr %119, i64 0, i64 %121
  %123 = load float, ptr %122, align 4, !tbaa !8
  %124 = load ptr, ptr %8, align 8, !tbaa !87
  %125 = getelementptr inbounds nuw %struct.Atrac3pIPQFChannelCtx, ptr %124, i32 0, i32 1
  %126 = load i32, ptr %16, align 4, !tbaa !4
  %127 = sext i32 %126 to i64
  %128 = getelementptr inbounds [24 x [8 x float]], ptr %125, i64 0, i64 %127
  %129 = load i32, ptr %11, align 4, !tbaa !4
  %130 = sext i32 %129 to i64
  %131 = getelementptr inbounds [8 x float], ptr %128, i64 0, i64 %130
  %132 = load float, ptr %131, align 4, !tbaa !8
  %133 = load i32, ptr %14, align 4, !tbaa !4
  %134 = sext i32 %133 to i64
  %135 = getelementptr inbounds [12 x [16 x float]], ptr @ipqf_coeffs2, i64 0, i64 %134
  %136 = load i32, ptr %11, align 4, !tbaa !4
  %137 = sext i32 %136 to i64
  %138 = getelementptr inbounds [16 x float], ptr %135, i64 0, i64 %137
  %139 = load float, ptr %138, align 4, !tbaa !8
  %140 = fmul nsz float %132, %139
  %141 = call nsz float @llvm.fmuladd.f32(float %116, float %123, float %140)
  %142 = load ptr, ptr %10, align 8, !tbaa !19
  %143 = load i32, ptr %12, align 4, !tbaa !4
  %144 = mul nsw i32 %143, 16
  %145 = load i32, ptr %11, align 4, !tbaa !4
  %146 = add nsw i32 %144, %145
  %147 = add nsw i32 %146, 0
  %148 = sext i32 %147 to i64
  %149 = getelementptr inbounds float, ptr %142, i64 %148
  %150 = load float, ptr %149, align 4, !tbaa !8
  %151 = fadd nsz float %150, %141
  store float %151, ptr %149, align 4, !tbaa !8
  %152 = load ptr, ptr %8, align 8, !tbaa !87
  %153 = getelementptr inbounds nuw %struct.Atrac3pIPQFChannelCtx, ptr %152, i32 0, i32 0
  %154 = load i32, ptr %15, align 4, !tbaa !4
  %155 = sext i32 %154 to i64
  %156 = getelementptr inbounds [24 x [8 x float]], ptr %153, i64 0, i64 %155
  %157 = load i32, ptr %11, align 4, !tbaa !4
  %158 = sub nsw i32 7, %157
  %159 = sext i32 %158 to i64
  %160 = getelementptr inbounds [8 x float], ptr %156, i64 0, i64 %159
  %161 = load float, ptr %160, align 4, !tbaa !8
  %162 = load i32, ptr %14, align 4, !tbaa !4
  %163 = sext i32 %162 to i64
  %164 = getelementptr inbounds [12 x [16 x float]], ptr @ipqf_coeffs1, i64 0, i64 %163
  %165 = load i32, ptr %11, align 4, !tbaa !4
  %166 = add nsw i32 %165, 8
  %167 = sext i32 %166 to i64
  %168 = getelementptr inbounds [16 x float], ptr %164, i64 0, i64 %167
  %169 = load float, ptr %168, align 4, !tbaa !8
  %170 = load ptr, ptr %8, align 8, !tbaa !87
  %171 = getelementptr inbounds nuw %struct.Atrac3pIPQFChannelCtx, ptr %170, i32 0, i32 1
  %172 = load i32, ptr %16, align 4, !tbaa !4
  %173 = sext i32 %172 to i64
  %174 = getelementptr inbounds [24 x [8 x float]], ptr %171, i64 0, i64 %173
  %175 = load i32, ptr %11, align 4, !tbaa !4
  %176 = sub nsw i32 7, %175
  %177 = sext i32 %176 to i64
  %178 = getelementptr inbounds [8 x float], ptr %174, i64 0, i64 %177
  %179 = load float, ptr %178, align 4, !tbaa !8
  %180 = load i32, ptr %14, align 4, !tbaa !4
  %181 = sext i32 %180 to i64
  %182 = getelementptr inbounds [12 x [16 x float]], ptr @ipqf_coeffs2, i64 0, i64 %181
  %183 = load i32, ptr %11, align 4, !tbaa !4
  %184 = add nsw i32 %183, 8
  %185 = sext i32 %184 to i64
  %186 = getelementptr inbounds [16 x float], ptr %182, i64 0, i64 %185
  %187 = load float, ptr %186, align 4, !tbaa !8
  %188 = fmul nsz float %179, %187
  %189 = call nsz float @llvm.fmuladd.f32(float %161, float %169, float %188)
  %190 = load ptr, ptr %10, align 8, !tbaa !19
  %191 = load i32, ptr %12, align 4, !tbaa !4
  %192 = mul nsw i32 %191, 16
  %193 = load i32, ptr %11, align 4, !tbaa !4
  %194 = add nsw i32 %192, %193
  %195 = add nsw i32 %194, 8
  %196 = sext i32 %195 to i64
  %197 = getelementptr inbounds float, ptr %190, i64 %196
  %198 = load float, ptr %197, align 4, !tbaa !8
  %199 = fadd nsz float %198, %189
  store float %199, ptr %197, align 4, !tbaa !8
  br label %200

200:                                              ; preds = %107
  %201 = load i32, ptr %11, align 4, !tbaa !4
  %202 = add nsw i32 %201, 1
  store i32 %202, ptr %11, align 4, !tbaa !4
  br label %104, !llvm.loop !93

203:                                              ; preds = %104
  %204 = load i32, ptr %16, align 4, !tbaa !4
  %205 = add nsw i32 %204, 2
  %206 = sext i32 %205 to i64
  %207 = getelementptr inbounds [26 x i32], ptr @mod23_lut, i64 0, i64 %206
  %208 = load i32, ptr %207, align 4, !tbaa !4
  store i32 %208, ptr %15, align 4, !tbaa !4
  %209 = load i32, ptr %15, align 4, !tbaa !4
  %210 = add nsw i32 %209, 2
  %211 = sext i32 %210 to i64
  %212 = getelementptr inbounds [26 x i32], ptr @mod23_lut, i64 0, i64 %211
  %213 = load i32, ptr %212, align 4, !tbaa !4
  store i32 %213, ptr %16, align 4, !tbaa !4
  br label %214

214:                                              ; preds = %203
  %215 = load i32, ptr %14, align 4, !tbaa !4
  %216 = add nsw i32 %215, 1
  store i32 %216, ptr %14, align 4, !tbaa !4
  br label %100, !llvm.loop !94

217:                                              ; preds = %100
  %218 = load ptr, ptr %8, align 8, !tbaa !87
  %219 = getelementptr inbounds nuw %struct.Atrac3pIPQFChannelCtx, ptr %218, i32 0, i32 2
  %220 = load i32, ptr %219, align 16, !tbaa !90
  %221 = sext i32 %220 to i64
  %222 = getelementptr inbounds [26 x i32], ptr @mod23_lut, i64 0, i64 %221
  %223 = load i32, ptr %222, align 4, !tbaa !4
  %224 = load ptr, ptr %8, align 8, !tbaa !87
  %225 = getelementptr inbounds nuw %struct.Atrac3pIPQFChannelCtx, ptr %224, i32 0, i32 2
  store i32 %223, ptr %225, align 16, !tbaa !90
  br label %226

226:                                              ; preds = %217
  %227 = load i32, ptr %12, align 4, !tbaa !4
  %228 = add nsw i32 %227, 1
  store i32 %228, ptr %12, align 4, !tbaa !4
  br label %24, !llvm.loop !95

229:                                              ; preds = %24
  call void @llvm.lifetime.end.p0(i64 8, ptr %20) #6
  call void @llvm.lifetime.end.p0(i64 64, ptr %19) #6
  call void @llvm.lifetime.end.p0(i64 8, ptr %18) #6
  call void @llvm.lifetime.end.p0(i64 64, ptr %17) #6
  call void @llvm.lifetime.end.p0(i64 4, ptr %16) #6
  call void @llvm.lifetime.end.p0(i64 4, ptr %15) #6
  call void @llvm.lifetime.end.p0(i64 4, ptr %14) #6
  call void @llvm.lifetime.end.p0(i64 4, ptr %13) #6
  call void @llvm.lifetime.end.p0(i64 4, ptr %12) #6
  call void @llvm.lifetime.end.p0(i64 4, ptr %11) #6
  ret void
}